; Function Attrs: nounwind uwtable
define internal range(i32 1, 4) i32 @io_open(ptr noundef %0) #0 {
  %2 = tail call ptr @luaL_checklstring(ptr noundef %0, i32 noundef 1, ptr noundef null) #9
  %3 = tail call ptr @luaL_optlstring(ptr noundef %0, i32 noundef 2, ptr noundef nonnull @.str.40, ptr noundef null) #9
  %4 = tail call ptr @lua_newuserdata(ptr noundef %0, i64 noundef 8) #9
  store ptr null, ptr %4, align 8, !tbaa !4
  tail call void @lua_getfield(ptr noundef %0, i32 noundef -10000, ptr noundef nonnull @.str.5) #9
  %5 = tail call i32 @lua_setmetatable(ptr noundef %0, i32 noundef -2) #9
  %6 = tail call noalias ptr @fopen(ptr noundef %2, ptr noundef %3)
  store ptr %6, ptr %4, align 8, !tbaa !4
  %7 = icmp eq ptr %6, null
  br i1 %7, label %8, label %17

8:                                                ; preds = %1
  %9 = tail call ptr @__errno_location() #10
  %10 = load i32, ptr %9, align 4, !tbaa !9
  tail call void @lua_pushnil(ptr noundef %0) #9
  %.not12.i = icmp eq ptr %2, null
  %11 = tail call ptr @strerror(i32 noundef %10) #9
  br i1 %.not12.i, label %14, label %12

12:                                               ; preds = %8
  %13 = tail call ptr (ptr, ptr, ...) @lua_pushfstring(ptr noundef %0, ptr noundef nonnull @.str.18, ptr noundef nonnull %2, ptr noundef %11) #9
  br label %pushresult.exit

14:                                               ; preds = %8
  %15 = tail call ptr (ptr, ptr, ...) @lua_pushfstring(ptr noundef %0, ptr noundef nonnull @.str.19, ptr noundef %11) #9
  br label %pushresult.exit

pushresult.exit:                                  ; preds = %12, %14
  %16 = sext i32 %10 to i64
  tail call void @lua_pushinteger(ptr noundef %0, i64 noundef %16) #9
  br label %17

17:                                               ; preds = %1, %pushresult.exit
  %18 = phi i32 [ 3, %pushresult.exit ], [ 1, %1 ]
  ret i32 %18
}